target datalayout = "e-m:e-p270:32:32-p271:32:32-p272:64:64-i64:64-i128:128-f80:128-n8:16:32:64-S128"
target triple = "x86_64-pc-linux-gnu"

%struct.rocksdb_iterator_t = type { ptr }

; Function Attrs: mustprogress nounwind uwtable
define void @rocksdb_iter_destroy(ptr noundef %0) #2 {
  %2 = alloca ptr, align 8
  store ptr %0, ptr %2, align 8, !tbaa !327
  %3 = load ptr, ptr %2, align 8, !tbaa !327
  %4 = getelementptr inbounds nuw %struct.rocksdb_iterator_t, ptr %3, i32 0, i32 0
  %5 = load ptr, ptr %4, align 8, !tbaa !329
  %6 = icmp eq ptr %5, null
  br i1 %6, label %11, label %7

7:                                                ; preds = %1
  %8 = load ptr, ptr %5, align 8, !tbaa !129
  %9 = getelementptr inbounds ptr, ptr %8, i64 1
  %10 = load ptr, ptr %9, align 8
  call void %10(ptr noundef nonnull align 8 dereferenceable(40) %5) #24
  br label %11

11:                                               ; preds = %7, %1
  %12 = load ptr, ptr %2, align 8, !tbaa !327
  %13 = icmp eq ptr %12, null
  br i1 %13, label %15, label %14

14:                                               ; preds = %11
  call void @_ZdlPvm(ptr noundef %12, i64 noundef 8) #28
  br label %15

15:                                               ; preds = %14, %11
  ret void
}